target datalayout = "e-m:e-p270:32:32-p271:32:32-p272:64:64-i64:64-i128:128-f80:128-n8:16:32:64-S128"
target triple = "x86_64-pc-linux-gnu"

%struct.expert_field = type { i32, i32 }

@hf_tn3270_field_attribute = internal global i32 0, align 4
@hf_tn3270_order_code = internal global i32 0, align 4
@hf_tn3270_character_code = internal global i32 0, align 4
@hf_tn3270_stop_address = internal global i32 0, align 4
@hf_tn3270_buffer_address = internal global i32 0, align 4
@hf_tn3270_field_data = internal global i32 0, align 4
@hf_tn3270_number_of_attributes = internal global i32 0, align 4
@ett_tn3270_field_attribute = internal global i32 0, align 4
@ei_tn3270_order_code = internal global %struct.expert_field zeroinitializer, align 4
@dissect_3270_field_attribute.byte = internal constant [7 x ptr] [ptr @hf_tn3270_fa_graphic_convert, ptr @hf_tn3270_fa_protected, ptr @hf_tn3270_fa_numeric, ptr @hf_tn3270_fa_display, ptr @hf_tn3270_fa_reserved, ptr @hf_tn3270_fa_modified, ptr null], align 16

; Function Attrs: null_pointer_is_valid sspstrong uwtable
define internal i32 @add_data_until_next_order_code(ptr noundef %0, ptr noundef %1, i32 noundef %2) #0 {
  %4 = alloca ptr, align 8
  %5 = alloca ptr, align 8
  %6 = alloca i32, align 4
  %7 = alloca i32, align 4
  %8 = alloca i32, align 4
  %9 = alloca i32, align 4
  %10 = alloca i32, align 4
  store ptr %0, ptr %4, align 8
  store ptr %1, ptr %5, align 8
  store i32 %2, ptr %6, align 4
  call void @llvm.lifetime.start.p0(i64 4, ptr %7) #6
  store i32 0, ptr %7, align 4
  call void @llvm.lifetime.start.p0(i64 4, ptr %8) #6
  %11 = load ptr, ptr %5, align 8
  %12 = load i32, ptr %6, align 4
  %13 = call i32 @tvb_reported_length_remaining(ptr noundef %11, i32 noundef %12)
  store i32 %13, ptr %8, align 4
  br label %14

14:                                               ; preds = %36, %3
  %15 = load i32, ptr %7, align 4
  %16 = load i32, ptr %8, align 4
  %17 = icmp slt i32 %15, %16
  br i1 %17, label %18, label %37

18:                                               ; preds = %14
  call void @llvm.lifetime.start.p0(i64 4, ptr %9) #6
  %19 = load ptr, ptr %5, align 8
  %20 = load i32, ptr %6, align 4
  %21 = load i32, ptr %7, align 4
  %22 = add i32 %20, %21
  %23 = call zeroext i8 @tvb_get_uint8(ptr noundef %19, i32 noundef %22)
  %24 = zext i8 %23 to i32
  store i32 %24, ptr %9, align 4
  %25 = load i32, ptr %9, align 4
  %26 = icmp ugt i32 %25, 0
  br i1 %26, label %27, label %31

27:                                               ; preds = %18
  %28 = load i32, ptr %9, align 4
  %29 = icmp ule i32 %28, 63
  br i1 %29, label %30, label %31

30:                                               ; preds = %27
  store i32 3, ptr %10, align 4
  br label %34

31:                                               ; preds = %27, %18
  %32 = load i32, ptr %7, align 4
  %33 = add i32 %32, 1
  store i32 %33, ptr %7, align 4
  store i32 0, ptr %10, align 4
  br label %34

34:                                               ; preds = %31, %30
  call void @llvm.lifetime.end.p0(i64 4, ptr %9) #6
  %35 = load i32, ptr %10, align 4
  switch i32 %35, label %49 [
    i32 0, label %36
    i32 3, label %37
  ]

36:                                               ; preds = %34
  br label %14, !llvm.loop !14

37:                                               ; preds = %34, %14
  %38 = load i32, ptr %7, align 4
  %39 = icmp sgt i32 %38, 0
  br i1 %39, label %40, label %47

40:                                               ; preds = %37
  %41 = load ptr, ptr %4, align 8
  %42 = load i32, ptr @hf_tn3270_field_data, align 4
  %43 = load ptr, ptr %5, align 8
  %44 = load i32, ptr %6, align 4
  %45 = load i32, ptr %7, align 4
  %46 = call ptr @proto_tree_add_item(ptr noundef %41, i32 noundef %42, ptr noundef %43, i32 noundef %44, i32 noundef %45, i32 noundef 46)
  br label %47

47:                                               ; preds = %40, %37
  %48 = load i32, ptr %7, align 4
  store i32 1, ptr %10, align 4
  call void @llvm.lifetime.end.p0(i64 4, ptr %8) #6
  call void @llvm.lifetime.end.p0(i64 4, ptr %7) #6
  ret i32 %48

49:                                               ; preds = %34
  unreachable
}

; Function Attrs: null_pointer_is_valid sspstrong uwtable
define internal i32 @dissect_stop_address(ptr noundef %0, ptr noundef %1, i32 noundef %2) #0 {
  %4 = alloca ptr, align 8
  %5 = alloca ptr, align 8
  %6 = alloca i32, align 4
  %7 = alloca i32, align 4
  %8 = alloca i32, align 4
  store ptr %0, ptr %4, align 8
  store ptr %1, ptr %5, align 8
  store i32 %2, ptr %6, align 4
  call void @llvm.lifetime.start.p0(i64 4, ptr %7) #6
  %9 = load i32, ptr %6, align 4
  store i32 %9, ptr %7, align 4
  call void @llvm.lifetime.start.p0(i64 4, ptr %8) #6
  %10 = load ptr, ptr %4, align 8
  %11 = load i32, ptr @hf_tn3270_stop_address, align 4
  %12 = load ptr, ptr %5, align 8
  %13 = load i32, ptr %6, align 4
  %14 = call ptr @proto_tree_add_item(ptr noundef %10, i32 noundef %11, ptr noundef %12, i32 noundef %13, i32 noundef 2, i32 noundef 0)
  %15 = load i32, ptr %6, align 4
  %16 = add i32 %15, 1
  store i32 %16, ptr %6, align 4
  %17 = load ptr, ptr %5, align 8
  %18 = load i32, ptr %6, align 4
  %19 = call zeroext i8 @tvb_get_uint8(ptr noundef %17, i32 noundef %18)
  %20 = zext i8 %19 to i32
  store i32 %20, ptr %8, align 4
  %21 = load i32, ptr %8, align 4
  %22 = icmp ne i32 %21, 8
  br i1 %22, label %23, label %31

23:                                               ; preds = %3
  %24 = load ptr, ptr %4, align 8
  %25 = load i32, ptr @hf_tn3270_character_code, align 4
  %26 = load ptr, ptr %5, align 8
  %27 = load i32, ptr %6, align 4
  %28 = call ptr @proto_tree_add_item(ptr noundef %24, i32 noundef %25, ptr noundef %26, i32 noundef %27, i32 noundef 1, i32 noundef 0)
  %29 = load i32, ptr %6, align 4
  %30 = add i32 %29, 1
  store i32 %30, ptr %6, align 4
  br label %31

31:                                               ; preds = %23, %3
  %32 = load i32, ptr %6, align 4
  %33 = load i32, ptr %7, align 4
  %34 = sub i32 %32, %33
  call void @llvm.lifetime.end.p0(i64 4, ptr %8) #6
  call void @llvm.lifetime.end.p0(i64 4, ptr %7) #6
  ret i32 %34
}

; Function Attrs: null_pointer_is_valid sspstrong uwtable
define internal i32 @dissect_field_attribute_pairs(ptr noundef %0, ptr noundef %1, i32 noundef %2) #0 {
  %4 = alloca ptr, align 8
  %5 = alloca ptr, align 8
  %6 = alloca i32, align 4
  %7 = alloca i32, align 4
  %8 = alloca i32, align 4
  %9 = alloca i32, align 4
  store ptr %0, ptr %4, align 8
  store ptr %1, ptr %5, align 8
  store i32 %2, ptr %6, align 4
  call void @llvm.lifetime.start.p0(i64 4, ptr %7) #6
  %10 = load i32, ptr %6, align 4
  store i32 %10, ptr %7, align 4
  call void @llvm.lifetime.start.p0(i64 4, ptr %8) #6
  call void @llvm.lifetime.start.p0(i64 4, ptr %9) #6
  %11 = load ptr, ptr %5, align 8
  %12 = load i32, ptr %6, align 4
  %13 = call zeroext i8 @tvb_get_uint8(ptr noundef %11, i32 noundef %12)
  %14 = zext i8 %13 to i32
  store i32 %14, ptr %8, align 4
  %15 = load ptr, ptr %4, align 8
  %16 = load i32, ptr @hf_tn3270_number_of_attributes, align 4
  %17 = load ptr, ptr %5, align 8
  %18 = load i32, ptr %6, align 4
  %19 = call ptr @proto_tree_add_item(ptr noundef %15, i32 noundef %16, ptr noundef %17, i32 noundef %18, i32 noundef 1, i32 noundef 0)
  %20 = load i32, ptr %6, align 4
  %21 = add i32 %20, 1
  store i32 %21, ptr %6, align 4
  store i32 0, ptr %9, align 4
  br label %22

22:                                               ; preds = %33, %3
  %23 = load i32, ptr %9, align 4
  %24 = load i32, ptr %8, align 4
  %25 = icmp slt i32 %23, %24
  br i1 %25, label %26, label %36

26:                                               ; preds = %22
  %27 = load ptr, ptr %4, align 8
  %28 = load ptr, ptr %5, align 8
  %29 = load i32, ptr %6, align 4
  %30 = call i32 @dissect_field_attribute_pair(ptr noundef %27, ptr noundef %28, i32 noundef %29)
  %31 = load i32, ptr %6, align 4
  %32 = add i32 %31, %30
  store i32 %32, ptr %6, align 4
  br label %33

33:                                               ; preds = %26
  %34 = load i32, ptr %9, align 4
  %35 = add i32 %34, 1
  store i32 %35, ptr %9, align 4
  br label %22, !llvm.loop !13

36:                                               ; preds = %22
  %37 = load i32, ptr %6, align 4
  %38 = load i32, ptr %7, align 4
  %39 = sub i32 %37, %38
  call void @llvm.lifetime.end.p0(i64 4, ptr %9) #6
  call void @llvm.lifetime.end.p0(i64 4, ptr %8) #6
  call void @llvm.lifetime.end.p0(i64 4, ptr %7) #6
  ret i32 %39
}

; Function Attrs: null_pointer_is_valid sspstrong uwtable
define internal i32 @dissect_3270_field_attribute(ptr noundef %0, ptr noundef %1, i32 noundef %2) #0 {
  %4 = alloca ptr, align 8
  %5 = alloca ptr, align 8
  %6 = alloca i32, align 4
  %7 = alloca i32, align 4
  store ptr %0, ptr %4, align 8
  store ptr %1, ptr %5, align 8
  store i32 %2, ptr %6, align 4
  call void @llvm.lifetime.start.p0(i64 4, ptr %7) #6
  %8 = load i32, ptr %6, align 4
  store i32 %8, ptr %7, align 4
  %9 = load ptr, ptr %4, align 8
  %10 = load ptr, ptr %5, align 8
  %11 = load i32, ptr %6, align 4
  %12 = load i32, ptr @hf_tn3270_field_attribute, align 4
  %13 = load i32, ptr @ett_tn3270_field_attribute, align 4
  %14 = call ptr @proto_tree_add_bitmask(ptr noundef %9, ptr noundef %10, i32 noundef %11, i32 noundef %12, i32 noundef %13, ptr noundef @dissect_3270_field_attribute.byte, i32 noundef 0)
  %15 = load i32, ptr %6, align 4
  %16 = add i32 %15, 1
  store i32 %16, ptr %6, align 4
  %17 = load i32, ptr %6, align 4
  %18 = load i32, ptr %7, align 4
  %19 = sub i32 %17, %18
  call void @llvm.lifetime.end.p0(i64 4, ptr %7) #6
  ret i32 %19
}

; Function Attrs: null_pointer_is_valid sspstrong uwtable
define internal i32 @dissect_orders_and_data(ptr noundef %0, ptr noundef %1, ptr noundef %2, i32 noundef %3, ptr noundef %4) #0 {
  %6 = alloca ptr, align 8
  %7 = alloca ptr, align 8
  %8 = alloca ptr, align 8
  %9 = alloca i32, align 4
  %10 = alloca ptr, align 8
  %11 = alloca i32, align 4
  %12 = alloca i32, align 4
  %13 = alloca ptr, align 8
  store ptr %0, ptr %6, align 8
  store ptr %1, ptr %7, align 8
  store ptr %2, ptr %8, align 8
  store i32 %3, ptr %9, align 4
  store ptr %4, ptr %10, align 8
  call void @llvm.lifetime.start.p0(i64 4, ptr %11) #6
  %14 = load i32, ptr %9, align 4
  store i32 %14, ptr %11, align 4
  call void @llvm.lifetime.start.p0(i64 4, ptr %12) #6
  call void @llvm.lifetime.start.p0(i64 8, ptr %13) #6
  br label %15

15:                                               ; preds = %97, %5
  %16 = load ptr, ptr %8, align 8
  %17 = load i32, ptr %9, align 4
  %18 = call i32 @tvb_reported_length_remaining(ptr noundef %16, i32 noundef %17)
  %19 = icmp sgt i32 %18, 0
  br i1 %19, label %20, label %98

20:                                               ; preds = %15
  %21 = load ptr, ptr %8, align 8
  %22 = load i32, ptr %9, align 4
  %23 = call zeroext i8 @tvb_get_uint8(ptr noundef %21, i32 noundef %22)
  %24 = zext i8 %23 to i32
  store i32 %24, ptr %12, align 4
  %25 = load i32, ptr %12, align 4
  %26 = icmp sgt i32 %25, 0
  br i1 %26, label %27, label %90

27:                                               ; preds = %20
  %28 = load i32, ptr %12, align 4
  %29 = icmp sle i32 %28, 63
  br i1 %29, label %30, label %90

30:                                               ; preds = %27
  %31 = load ptr, ptr %6, align 8
  %32 = load i32, ptr @hf_tn3270_order_code, align 4
  %33 = load ptr, ptr %8, align 8
  %34 = load i32, ptr %9, align 4
  %35 = call ptr @proto_tree_add_item(ptr noundef %31, i32 noundef %32, ptr noundef %33, i32 noundef %34, i32 noundef 1, i32 noundef 0)
  store ptr %35, ptr %13, align 8
  %36 = load i32, ptr %9, align 4
  %37 = add i32 %36, 1
  store i32 %37, ptr %9, align 4
  %38 = load i32, ptr %12, align 4
  switch i32 %38, label %85 [
    i32 29, label %39
    i32 44, label %46
    i32 41, label %46
    i32 40, label %53
    i32 18, label %60
    i32 60, label %60
    i32 8, label %67
    i32 17, label %75
    i32 5, label %84
    i32 19, label %84
  ]

39:                                               ; preds = %30
  %40 = load ptr, ptr %6, align 8
  %41 = load ptr, ptr %8, align 8
  %42 = load i32, ptr %9, align 4
  %43 = call i32 @dissect_3270_field_attribute(ptr noundef %40, ptr noundef %41, i32 noundef %42)
  %44 = load i32, ptr %9, align 4
  %45 = add i32 %44, %43
  store i32 %45, ptr %9, align 4
  br label %89

46:                                               ; preds = %30, %30
  %47 = load ptr, ptr %6, align 8
  %48 = load ptr, ptr %8, align 8
  %49 = load i32, ptr %9, align 4
  %50 = call i32 @dissect_field_attribute_pairs(ptr noundef %47, ptr noundef %48, i32 noundef %49)
  %51 = load i32, ptr %9, align 4
  %52 = add i32 %51, %50
  store i32 %52, ptr %9, align 4
  br label %89

53:                                               ; preds = %30
  %54 = load ptr, ptr %6, align 8
  %55 = load ptr, ptr %8, align 8
  %56 = load i32, ptr %9, align 4
  %57 = call i32 @dissect_field_attribute_pair(ptr noundef %54, ptr noundef %55, i32 noundef %56)
  %58 = load i32, ptr %9, align 4
  %59 = add i32 %58, %57
  store i32 %59, ptr %9, align 4
  br label %89

60:                                               ; preds = %30, %30
  %61 = load ptr, ptr %6, align 8
  %62 = load ptr, ptr %8, align 8
  %63 = load i32, ptr %9, align 4
  %64 = call i32 @dissect_stop_address(ptr noundef %61, ptr noundef %62, i32 noundef %63)
  %65 = load i32, ptr %9, align 4
  %66 = add i32 %65, %64
  store i32 %66, ptr %9, align 4
  br label %89

67:                                               ; preds = %30
  %68 = load ptr, ptr %6, align 8
  %69 = load i32, ptr @hf_tn3270_character_code, align 4
  %70 = load ptr, ptr %8, align 8
  %71 = load i32, ptr %9, align 4
  %72 = call ptr @proto_tree_add_item(ptr noundef %68, i32 noundef %69, ptr noundef %70, i32 noundef %71, i32 noundef 1, i32 noundef 0)
  %73 = load i32, ptr %9, align 4
  %74 = add i32 %73, 1
  store i32 %74, ptr %9, align 4
  br label %89

75:                                               ; preds = %30
  %76 = load ptr, ptr %6, align 8
  %77 = load ptr, ptr %8, align 8
  %78 = load i32, ptr %9, align 4
  %79 = load i32, ptr @hf_tn3270_buffer_address, align 4
  %80 = load ptr, ptr %10, align 8
  %81 = call i32 @dissect_buffer_address(ptr noundef %76, ptr noundef %77, i32 noundef %78, i32 noundef %79, ptr noundef %80)
  %82 = load i32, ptr %9, align 4
  %83 = add i32 %82, %81
  store i32 %83, ptr %9, align 4
  br label %89

84:                                               ; preds = %30, %30
  br label %89

85:                                               ; preds = %30
  %86 = load ptr, ptr %7, align 8
  %87 = load ptr, ptr %13, align 8
  %88 = call ptr @expert_add_info(ptr noundef %86, ptr noundef %87, ptr noundef @ei_tn3270_order_code)
  br label %89

89:                                               ; preds = %85, %84, %75, %67, %60, %53, %46, %39
  br label %97

90:                                               ; preds = %27, %20
  %91 = load ptr, ptr %6, align 8
  %92 = load ptr, ptr %8, align 8
  %93 = load i32, ptr %9, align 4
  %94 = call i32 @add_data_until_next_order_code(ptr noundef %91, ptr noundef %92, i32 noundef %93)
  %95 = load i32, ptr %9, align 4
  %96 = add i32 %95, %94
  store i32 %96, ptr %9, align 4
  br label %97

97:                                               ; preds = %90, %89
  br label %15, !llvm.loop !9

98:                                               ; preds = %15
  %99 = load i32, ptr %9, align 4
  %100 = load i32, ptr %11, align 4
  %101 = sub i32 %99, %100
  call void @llvm.lifetime.end.p0(i64 8, ptr %13) #6
  call void @llvm.lifetime.end.p0(i64 4, ptr %12) #6
  call void @llvm.lifetime.end.p0(i64 4, ptr %11) #6
  ret i32 %101
}