; Function Attrs: null_pointer_is_valid sspstrong uwtable
define internal fastcc noundef i32 @dissect_orders_and_data(ptr noundef %0, ptr noundef %1, ptr noundef %2, i32 noundef %3, ptr noundef nonnull readonly captures(none) %4) unnamed_addr #0 {
  %6 = tail call i32 @tvb_reported_length_remaining(ptr noundef %2, i32 noundef %3)
  %7 = icmp sgt i32 %6, 0
  br i1 %7, label %.lr.ph, label %._crit_edge

.lr.ph:                                           ; preds = %5
  %8 = getelementptr i8, ptr %4, i64 10
  %9 = getelementptr i8, ptr %4, i64 11
  br label %10

10:                                               ; preds = %.lr.ph, %dissect_field_attribute_pairs.exit
  %.051 = phi i32 [ %3, %.lr.ph ], [ %.1, %dissect_field_attribute_pairs.exit ]
  %11 = tail call zeroext i8 @tvb_get_uint8(ptr noundef %2, i32 noundef %.051)
  %12 = add i8 %11, -1
  %or.cond = icmp ult i8 %12, 63
  br i1 %or.cond, label %13, label %52

13:                                               ; preds = %10
  %14 = load i32, ptr @hf_tn3270_order_code, align 4
  %15 = tail call ptr @proto_tree_add_item(ptr noundef %0, i32 noundef %14, ptr noundef %2, i32 noundef %.051, i32 noundef 1, i32 noundef 0)
  %16 = add i32 %.051, 1
  switch i8 %11, label %50 [
    i8 29, label %17
    i8 44, label %22
    i8 41, label %22
    i8 40, label %31
    i8 18, label %34
    i8 60, label %34
    i8 8, label %43
    i8 17, label %47
    i8 5, label %dissect_field_attribute_pairs.exit
    i8 19, label %dissect_field_attribute_pairs.exit
  ]

17:                                               ; preds = %13
  %18 = load i32, ptr @hf_tn3270_field_attribute, align 4
  %19 = load i32, ptr @ett_tn3270_field_attribute, align 4
  %20 = tail call ptr @proto_tree_add_bitmask(ptr noundef %0, ptr noundef %2, i32 noundef %16, i32 noundef %18, i32 noundef %19, ptr noundef nonnull @dissect_3270_field_attribute.byte, i32 noundef 0)
  %21 = add i32 %.051, 2
  br label %dissect_field_attribute_pairs.exit

22:                                               ; preds = %13, %13
  %23 = tail call zeroext i8 @tvb_get_uint8(ptr noundef %2, i32 noundef %16)
  %24 = zext i8 %23 to i32
  %25 = load i32, ptr @hf_tn3270_number_of_attributes, align 4
  %26 = tail call ptr @proto_tree_add_item(ptr noundef %0, i32 noundef %25, ptr noundef %2, i32 noundef %16, i32 noundef 1, i32 noundef 0)
  %27 = add i32 %.051, 2
  %.not.i = icmp eq i8 %23, 0
  br i1 %.not.i, label %dissect_field_attribute_pairs.exit, label %.lr.ph.i

.lr.ph.i:                                         ; preds = %22, %.lr.ph.i
  %.017.i = phi i32 [ %30, %.lr.ph.i ], [ 0, %22 ]
  %.01516.i = phi i32 [ %29, %.lr.ph.i ], [ %27, %22 ]
  %28 = tail call fastcc i32 @dissect_field_attribute_pair(ptr noundef %0, ptr noundef %2, i32 noundef %.01516.i)
  %29 = add i32 %28, %.01516.i
  %30 = add nuw nsw i32 %.017.i, 1
  %exitcond.not.i = icmp eq i32 %30, %24
  br i1 %exitcond.not.i, label %dissect_field_attribute_pairs.exit, label %.lr.ph.i, !llvm.loop !9

31:                                               ; preds = %13
  %32 = tail call fastcc i32 @dissect_field_attribute_pair(ptr noundef %0, ptr noundef %2, i32 noundef %16)
  %33 = add i32 %32, %16
  br label %dissect_field_attribute_pairs.exit

34:                                               ; preds = %13, %13
  %35 = load i32, ptr @hf_tn3270_stop_address, align 4
  %36 = tail call ptr @proto_tree_add_item(ptr noundef %0, i32 noundef %35, ptr noundef %2, i32 noundef %16, i32 noundef 2, i32 noundef 0)
  %37 = add i32 %.051, 2
  %38 = tail call zeroext i8 @tvb_get_uint8(ptr noundef %2, i32 noundef %37)
  %.not.i47 = icmp eq i8 %38, 8
  br i1 %.not.i47, label %dissect_field_attribute_pairs.exit, label %39

39:                                               ; preds = %34
  %40 = load i32, ptr @hf_tn3270_character_code, align 4
  %41 = tail call ptr @proto_tree_add_item(ptr noundef %0, i32 noundef %40, ptr noundef %2, i32 noundef %37, i32 noundef 1, i32 noundef 0)
  %42 = add i32 %.051, 3
  br label %dissect_field_attribute_pairs.exit

43:                                               ; preds = %13
  %44 = load i32, ptr @hf_tn3270_character_code, align 4
  %45 = tail call ptr @proto_tree_add_item(ptr noundef %0, i32 noundef %44, ptr noundef %2, i32 noundef %16, i32 noundef 1, i32 noundef 0)
  %46 = add i32 %.051, 2
  br label %dissect_field_attribute_pairs.exit

47:                                               ; preds = %13
  %48 = load i32, ptr @hf_tn3270_buffer_address, align 4
  %.val = load i8, ptr %8, align 2
  %.val46 = load i8, ptr %9, align 1
  tail call fastcc void @dissect_buffer_address(ptr noundef %0, ptr noundef %2, i32 noundef %16, i32 noundef %48, i8 %.val, i8 %.val46)
  %49 = add i32 %.051, 3
  br label %dissect_field_attribute_pairs.exit

50:                                               ; preds = %13
  %51 = tail call ptr @expert_add_info(ptr noundef %1, ptr noundef %15, ptr noundef nonnull @ei_tn3270_order_code)
  br label %dissect_field_attribute_pairs.exit

52:                                               ; preds = %10
  %53 = tail call i32 @tvb_reported_length_remaining(ptr noundef %2, i32 noundef %.051)
  %smax.i = tail call i32 @llvm.smax.i32(i32 %53, i32 0)
  br label %54

54:                                               ; preds = %55, %52
  %.017.i48 = phi i32 [ 0, %52 ], [ %59, %55 ]
  %exitcond.not.i49 = icmp eq i32 %.017.i48, %smax.i
  br i1 %exitcond.not.i49, label %60, label %55

55:                                               ; preds = %54
  %56 = add i32 %.017.i48, %.051
  %57 = tail call zeroext i8 @tvb_get_uint8(ptr noundef %2, i32 noundef %56)
  %58 = add i8 %57, -1
  %or.cond.i = icmp ult i8 %58, 63
  %59 = add nuw i32 %.017.i48, 1
  br i1 %or.cond.i, label %60, label %54

60:                                               ; preds = %55, %54
  %.017.lcssa.i = phi i32 [ %.017.i48, %55 ], [ %smax.i, %54 ]
  %.not.i50 = icmp eq i32 %.017.lcssa.i, 0
  br i1 %.not.i50, label %add_data_until_next_order_code.exit, label %61

61:                                               ; preds = %60
  %62 = load i32, ptr @hf_tn3270_field_data, align 4
  %63 = tail call ptr @proto_tree_add_item(ptr noundef %0, i32 noundef %62, ptr noundef %2, i32 noundef %.051, i32 noundef %.017.lcssa.i, i32 noundef 46)
  br label %add_data_until_next_order_code.exit

add_data_until_next_order_code.exit:              ; preds = %60, %61
  %64 = add i32 %.017.lcssa.i, %.051
  br label %dissect_field_attribute_pairs.exit

dissect_field_attribute_pairs.exit:               ; preds = %.lr.ph.i, %39, %34, %22, %17, %31, %43, %47, %50, %13, %13, %add_data_until_next_order_code.exit
  %.1 = phi i32 [ %16, %50 ], [ %16, %13 ], [ %16, %13 ], [ %49, %47 ], [ %46, %43 ], [ %33, %31 ], [ %21, %17 ], [ %64, %add_data_until_next_order_code.exit ], [ %27, %22 ], [ %42, %39 ], [ %37, %34 ], [ %29, %.lr.ph.i ]
  %65 = tail call i32 @tvb_reported_length_remaining(ptr noundef %2, i32 noundef %.1)
  %66 = icmp sgt i32 %65, 0
  br i1 %66, label %10, label %._crit_edge, !llvm.loop !10

._crit_edge:                                      ; preds = %dissect_field_attribute_pairs.exit, %5
  %.0.lcssa = phi i32 [ %3, %5 ], [ %.1, %dissect_field_attribute_pairs.exit ]
  %67 = sub i32 %.0.lcssa, %3
  ret i32 %67
}